; Function Attrs: mustprogress uwtable
define hidden void @_ZN4cvc58internal6theory2uf6indentERSoi(ptr noundef nonnull align 8 dereferenceable(8) %0, i32 noundef %1) local_unnamed_addr #3 {
  %3 = icmp sgt i32 %1, 0
  br i1 %3, label %.lr.ph, label %._crit_edge

._crit_edge:                                      ; preds = %.lr.ph, %2
  ret void

.lr.ph:                                           ; preds = %2, %.lr.ph
  %.03 = phi i32 [ %5, %.lr.ph ], [ 0, %2 ]
  %4 = tail call noundef nonnull align 8 dereferenceable(8) ptr @_ZSt16__ostream_insertIcSt11char_traitsIcEERSt13basic_ostreamIT_T0_ES6_PKS3_l(ptr noundef nonnull align 8 dereferenceable(8) %0, ptr noundef nonnull @.str, i64 noundef 1)
  %5 = add nuw nsw i32 %.03, 1
  %exitcond.not = icmp eq i32 %5, %1
  br i1 %exitcond.not, label %._crit_edge, label %.lr.ph, !llvm.loop !94
}